target datalayout = "e-m:e-p270:32:32-p271:32:32-p272:64:64-i64:64-i128:128-f80:128-n8:16:32:64-S128"
target triple = "x86_64-pc-linux-gnu"

%struct.RedisModuleCtx = type { ptr, ptr, ptr, ptr, ptr, i32, i32, i32, ptr, i32, ptr, ptr, ptr, ptr, i64, ptr }
%struct.client = type { i64, i64, ptr, i8, i8, i8, i8, i32, ptr, ptr, ptr, ptr, ptr, i64, i64, i32, ptr, i32, i32, ptr, i64, ptr, ptr, ptr, ptr, ptr, i32, i32, i64, ptr, i64, ptr, i64, i64, i64, i32, ptr, i64, i64, i32, i32, i32, i32, i64, i64, ptr, i64, i64, i64, i64, i64, i64, i64, i64, [41 x i8], i32, ptr, i32, i32, i64, %struct.multiState, %struct.blockingState, i64, ptr, ptr, ptr, ptr, ptr, ptr, ptr, ptr, ptr, ptr, ptr, ptr, ptr, ptr, i64, ptr, i64, i32, ptr, ptr, ptr, i64, %struct.listNode, i64, i64, i32, i64, ptr }
%struct.multiState = type { ptr, i32, i32, i32, i64, i32 }
%struct.blockingState = type { i32, i64, i32, ptr, i32, i32, i64, ptr, ptr, i64 }
%struct.listNode = type { ptr, ptr, ptr }
%struct.AutoMemEntry = type { ptr, i32 }

; Function Attrs: nounwind uwtable
define dso_local void @autoMemoryAdd(ptr noundef %0, i32 noundef %1, ptr noundef %2) #0 {
  %4 = alloca ptr, align 8
  %5 = alloca i32, align 4
  %6 = alloca ptr, align 8
  store ptr %0, ptr %4, align 8, !tbaa !13
  store i32 %1, ptr %5, align 4, !tbaa !29
  store ptr %2, ptr %6, align 8, !tbaa !9
  %7 = load ptr, ptr %4, align 8, !tbaa !13
  %8 = getelementptr inbounds nuw %struct.RedisModuleCtx, ptr %7, i32 0, i32 7
  %9 = load i32, ptr %8, align 8, !tbaa !98
  %10 = and i32 %9, 1
  %11 = icmp ne i32 %10, 0
  br i1 %11, label %13, label %12

12:                                               ; preds = %3
  br label %70

13:                                               ; preds = %3
  %14 = load ptr, ptr %4, align 8, !tbaa !13
  %15 = getelementptr inbounds nuw %struct.RedisModuleCtx, ptr %14, i32 0, i32 6
  %16 = load i32, ptr %15, align 4, !tbaa !107
  %17 = load ptr, ptr %4, align 8, !tbaa !13
  %18 = getelementptr inbounds nuw %struct.RedisModuleCtx, ptr %17, i32 0, i32 5
  %19 = load i32, ptr %18, align 8, !tbaa !113
  %20 = icmp eq i32 %16, %19
  br i1 %20, label %21, label %45

21:                                               ; preds = %13
  %22 = load ptr, ptr %4, align 8, !tbaa !13
  %23 = getelementptr inbounds nuw %struct.RedisModuleCtx, ptr %22, i32 0, i32 5
  %24 = load i32, ptr %23, align 8, !tbaa !113
  %25 = mul nsw i32 %24, 2
  store i32 %25, ptr %23, align 8, !tbaa !113
  %26 = load ptr, ptr %4, align 8, !tbaa !13
  %27 = getelementptr inbounds nuw %struct.RedisModuleCtx, ptr %26, i32 0, i32 5
  %28 = load i32, ptr %27, align 8, !tbaa !113
  %29 = icmp slt i32 %28, 16
  br i1 %29, label %30, label %33

30:                                               ; preds = %21
  %31 = load ptr, ptr %4, align 8, !tbaa !13
  %32 = getelementptr inbounds nuw %struct.RedisModuleCtx, ptr %31, i32 0, i32 5
  store i32 16, ptr %32, align 8, !tbaa !113
  br label %33

33:                                               ; preds = %30, %21
  %34 = load ptr, ptr %4, align 8, !tbaa !13
  %35 = getelementptr inbounds nuw %struct.RedisModuleCtx, ptr %34, i32 0, i32 4
  %36 = load ptr, ptr %35, align 8, !tbaa !108
  %37 = load ptr, ptr %4, align 8, !tbaa !13
  %38 = getelementptr inbounds nuw %struct.RedisModuleCtx, ptr %37, i32 0, i32 5
  %39 = load i32, ptr %38, align 8, !tbaa !113
  %40 = sext i32 %39 to i64
  %41 = mul i64 16, %40
  %42 = call ptr @zrealloc(ptr noundef %36, i64 noundef %41) #17
  %43 = load ptr, ptr %4, align 8, !tbaa !13
  %44 = getelementptr inbounds nuw %struct.RedisModuleCtx, ptr %43, i32 0, i32 4
  store ptr %42, ptr %44, align 8, !tbaa !108
  br label %45

45:                                               ; preds = %33, %13
  %46 = load i32, ptr %5, align 4, !tbaa !29
  %47 = load ptr, ptr %4, align 8, !tbaa !13
  %48 = getelementptr inbounds nuw %struct.RedisModuleCtx, ptr %47, i32 0, i32 4
  %49 = load ptr, ptr %48, align 8, !tbaa !108
  %50 = load ptr, ptr %4, align 8, !tbaa !13
  %51 = getelementptr inbounds nuw %struct.RedisModuleCtx, ptr %50, i32 0, i32 6
  %52 = load i32, ptr %51, align 4, !tbaa !107
  %53 = sext i32 %52 to i64
  %54 = getelementptr inbounds %struct.AutoMemEntry, ptr %49, i64 %53
  %55 = getelementptr inbounds nuw %struct.AutoMemEntry, ptr %54, i32 0, i32 1
  store i32 %46, ptr %55, align 8, !tbaa !111
  %56 = load ptr, ptr %6, align 8, !tbaa !9
  %57 = load ptr, ptr %4, align 8, !tbaa !13
  %58 = getelementptr inbounds nuw %struct.RedisModuleCtx, ptr %57, i32 0, i32 4
  %59 = load ptr, ptr %58, align 8, !tbaa !108
  %60 = load ptr, ptr %4, align 8, !tbaa !13
  %61 = getelementptr inbounds nuw %struct.RedisModuleCtx, ptr %60, i32 0, i32 6
  %62 = load i32, ptr %61, align 4, !tbaa !107
  %63 = sext i32 %62 to i64
  %64 = getelementptr inbounds %struct.AutoMemEntry, ptr %59, i64 %63
  %65 = getelementptr inbounds nuw %struct.AutoMemEntry, ptr %64, i32 0, i32 0
  store ptr %56, ptr %65, align 8, !tbaa !109
  %66 = load ptr, ptr %4, align 8, !tbaa !13
  %67 = getelementptr inbounds nuw %struct.RedisModuleCtx, ptr %66, i32 0, i32 6
  %68 = load i32, ptr %67, align 4, !tbaa !107
  %69 = add nsw i32 %68, 1
  store i32 %69, ptr %67, align 4, !tbaa !107
  br label %70

70:                                               ; preds = %45, %12
  ret void
}

; Function Attrs: nounwind uwtable
define dso_local ptr @RM_GetClientNameById(ptr noundef %0, i64 noundef %1) #0 {
  %3 = alloca ptr, align 8
  %4 = alloca ptr, align 8
  %5 = alloca i64, align 8
  %6 = alloca ptr, align 8
  %7 = alloca i32, align 4
  %8 = alloca ptr, align 8
  store ptr %0, ptr %4, align 8, !tbaa !13
  store i64 %1, ptr %5, align 8, !tbaa !5
  call void @llvm.lifetime.start.p0(i64 8, ptr %6) #15
  %9 = load i64, ptr %5, align 8, !tbaa !5
  %10 = call ptr @lookupClientByID(i64 noundef %9)
  store ptr %10, ptr %6, align 8, !tbaa !31
  %11 = load ptr, ptr %6, align 8, !tbaa !31
  %12 = icmp eq ptr %11, null
  br i1 %12, label %18, label %13

13:                                               ; preds = %2
  %14 = load ptr, ptr %6, align 8, !tbaa !31
  %15 = getelementptr inbounds nuw %struct.client, ptr %14, i32 0, i32 9
  %16 = load ptr, ptr %15, align 8, !tbaa !367
  %17 = icmp eq ptr %16, null
  br i1 %17, label %18, label %19

18:                                               ; preds = %13, %2
  store ptr null, ptr %3, align 8
  store i32 1, ptr %7, align 4
  br label %27

19:                                               ; preds = %13
  call void @llvm.lifetime.start.p0(i64 8, ptr %8) #15
  %20 = load ptr, ptr %6, align 8, !tbaa !31
  %21 = getelementptr inbounds nuw %struct.client, ptr %20, i32 0, i32 9
  %22 = load ptr, ptr %21, align 8, !tbaa !367
  store ptr %22, ptr %8, align 8, !tbaa !69
  %23 = load ptr, ptr %8, align 8, !tbaa !69
  call void @incrRefCount(ptr noundef %23)
  %24 = load ptr, ptr %4, align 8, !tbaa !13
  %25 = load ptr, ptr %8, align 8, !tbaa !69
  call void @autoMemoryAdd(ptr noundef %24, i32 noundef 1, ptr noundef %25)
  %26 = load ptr, ptr %8, align 8, !tbaa !69
  store ptr %26, ptr %3, align 8
  store i32 1, ptr %7, align 4
  call void @llvm.lifetime.end.p0(i64 8, ptr %8) #15
  br label %27

27:                                               ; preds = %19, %18
  call void @llvm.lifetime.end.p0(i64 8, ptr %6) #15
  %28 = load ptr, ptr %3, align 8
  ret ptr %28
}