; Function Attrs: nounwind uwtable
define dso_local ptr @RM_GetClientNameById(ptr noundef captures(none) %0, i64 noundef %1) #0 {
  %3 = tail call ptr @lookupClientByID(i64 noundef %1) #35
  %4 = icmp eq ptr %3, null
  br i1 %4, label %autoMemoryAdd.exit, label %5

5:                                                ; preds = %2
  %6 = getelementptr inbounds nuw i8, ptr %3, i64 40
  %7 = load ptr, ptr %6, align 8, !tbaa !311
  %8 = icmp eq ptr %7, null
  br i1 %8, label %autoMemoryAdd.exit, label %9

9:                                                ; preds = %5
  tail call void @incrRefCount(ptr noundef nonnull %7) #35
  %10 = getelementptr inbounds nuw i8, ptr %0, i64 48
  %11 = load i32, ptr %10, align 8, !tbaa !87
  %12 = and i32 %11, 1
  %.not.i = icmp eq i32 %12, 0
  br i1 %.not.i, label %autoMemoryAdd.exit, label %13

13:                                               ; preds = %9
  %14 = getelementptr inbounds nuw i8, ptr %0, i64 44
  %15 = load i32, ptr %14, align 4, !tbaa !96
  %16 = getelementptr inbounds nuw i8, ptr %0, i64 40
  %17 = load i32, ptr %16, align 8, !tbaa !261
  %18 = icmp eq i32 %15, %17
  br i1 %18, label %19, label %._crit_edge.i

._crit_edge.i:                                    ; preds = %13
  %.phi.trans.insert.i = getelementptr inbounds nuw i8, ptr %0, i64 32
  %.pre.i = load ptr, ptr %.phi.trans.insert.i, align 8, !tbaa !97
  br label %26

19:                                               ; preds = %13
  %20 = tail call i32 @llvm.smax.i32(i32 %15, i32 8)
  %spec.select.i = shl nuw i32 %20, 1
  store i32 %spec.select.i, ptr %16, align 8, !tbaa !261
  %21 = getelementptr inbounds nuw i8, ptr %0, i64 32
  %22 = load ptr, ptr %21, align 8, !tbaa !97
  %23 = sext i32 %spec.select.i to i64
  %24 = shl nsw i64 %23, 4
  %25 = tail call ptr @zrealloc(ptr noundef %22, i64 noundef %24) #37
  store ptr %25, ptr %21, align 8, !tbaa !97
  %.pre15.i = load i32, ptr %14, align 4, !tbaa !96
  br label %26

26:                                               ; preds = %19, %._crit_edge.i
  %27 = phi i32 [ %15, %._crit_edge.i ], [ %.pre15.i, %19 ]
  %28 = phi ptr [ %.pre.i, %._crit_edge.i ], [ %25, %19 ]
  %29 = sext i32 %27 to i64
  %30 = getelementptr inbounds %struct.AutoMemEntry, ptr %28, i64 %29, i32 1
  store i32 1, ptr %30, align 8, !tbaa !100
  %31 = getelementptr inbounds %struct.AutoMemEntry, ptr %28, i64 %29
  store ptr %7, ptr %31, align 8, !tbaa !98
  %32 = add nsw i32 %27, 1
  store i32 %32, ptr %14, align 4, !tbaa !96
  br label %autoMemoryAdd.exit

autoMemoryAdd.exit:                               ; preds = %26, %9, %2, %5
  %.0 = phi ptr [ null, %5 ], [ null, %2 ], [ %7, %9 ], [ %7, %26 ]
  ret ptr %.0
}